target datalayout = "e-m:e-p270:32:32-p271:32:32-p272:64:64-i64:64-i128:128-f80:128-n8:16:32:64-S128"
target triple = "x86_64-pc-linux-gnu"

%struct.evhttp_uri = type { i32, ptr, ptr, ptr, i32, ptr, ptr, ptr, ptr }

@.str.46 = private unnamed_addr constant [13 x i8] c"%s: strdup()\00", align 1
@__func__.evhttp_uri_set_scheme = private unnamed_addr constant [22 x i8] c"evhttp_uri_set_scheme\00", align 1

; Function Attrs: nounwind uwtable
define internal i32 @scheme_ok(ptr noundef %0, ptr noundef %1) #0 {
  %3 = alloca i32, align 4
  %4 = alloca ptr, align 8
  %5 = alloca ptr, align 8
  store ptr %0, ptr %4, align 8
  store ptr %1, ptr %5, align 8
  br label %6

6:                                                ; preds = %2
  br label %7

7:                                                ; preds = %6
  %8 = load ptr, ptr %4, align 8
  %9 = load ptr, ptr %5, align 8
  %10 = icmp eq ptr %8, %9
  br i1 %10, label %11, label %12

11:                                               ; preds = %7
  store i32 0, ptr %3, align 4
  br label %47

12:                                               ; preds = %7
  %13 = load ptr, ptr %4, align 8
  %14 = load i8, ptr %13, align 1
  %15 = call i32 @EVUTIL_ISALPHA_(i8 noundef signext %14)
  %16 = icmp ne i32 %15, 0
  br i1 %16, label %18, label %17

17:                                               ; preds = %12
  store i32 0, ptr %3, align 4
  br label %47

18:                                               ; preds = %12
  br label %19

19:                                               ; preds = %45, %18
  %20 = load ptr, ptr %4, align 8
  %21 = getelementptr inbounds nuw i8, ptr %20, i32 1
  store ptr %21, ptr %4, align 8
  %22 = load ptr, ptr %5, align 8
  %23 = icmp ult ptr %21, %22
  br i1 %23, label %24, label %46

24:                                               ; preds = %19
  %25 = load ptr, ptr %4, align 8
  %26 = load i8, ptr %25, align 1
  %27 = call i32 @EVUTIL_ISALNUM_(i8 noundef signext %26)
  %28 = icmp ne i32 %27, 0
  br i1 %28, label %45, label %29

29:                                               ; preds = %24
  %30 = load ptr, ptr %4, align 8
  %31 = load i8, ptr %30, align 1
  %32 = sext i8 %31 to i32
  %33 = icmp ne i32 %32, 43
  br i1 %33, label %34, label %45

34:                                               ; preds = %29
  %35 = load ptr, ptr %4, align 8
  %36 = load i8, ptr %35, align 1
  %37 = sext i8 %36 to i32
  %38 = icmp ne i32 %37, 45
  br i1 %38, label %39, label %45

39:                                               ; preds = %34
  %40 = load ptr, ptr %4, align 8
  %41 = load i8, ptr %40, align 1
  %42 = sext i8 %41 to i32
  %43 = icmp ne i32 %42, 46
  br i1 %43, label %44, label %45

44:                                               ; preds = %39
  store i32 0, ptr %3, align 4
  br label %47

45:                                               ; preds = %39, %34, %29, %24
  br label %19, !llvm.loop !32

46:                                               ; preds = %19
  store i32 1, ptr %3, align 4
  br label %47

47:                                               ; preds = %46, %44, %17, %11
  %48 = load i32, ptr %3, align 4
  ret i32 %48
}

; Function Attrs: nounwind uwtable
define i32 @evhttp_uri_set_scheme(ptr noundef %0, ptr noundef %1) #0 {
  %3 = alloca i32, align 4
  %4 = alloca ptr, align 8
  %5 = alloca ptr, align 8
  store ptr %0, ptr %4, align 8
  store ptr %1, ptr %5, align 8
  %6 = load ptr, ptr %5, align 8
  %7 = icmp ne ptr %6, null
  br i1 %7, label %8, label %17

8:                                                ; preds = %2
  %9 = load ptr, ptr %5, align 8
  %10 = load ptr, ptr %5, align 8
  %11 = load ptr, ptr %5, align 8
  %12 = call i64 @strlen(ptr noundef %11) #12
  %13 = getelementptr inbounds nuw i8, ptr %10, i64 %12
  %14 = call i32 @scheme_ok(ptr noundef %9, ptr noundef %13)
  %15 = icmp ne i32 %14, 0
  br i1 %15, label %17, label %16

16:                                               ; preds = %8
  store i32 -1, ptr %3, align 4
  br label %43

17:                                               ; preds = %8, %2
  br label %18

18:                                               ; preds = %17
  %19 = load ptr, ptr %4, align 8
  %20 = getelementptr inbounds nuw %struct.evhttp_uri, ptr %19, i32 0, i32 1
  %21 = load ptr, ptr %20, align 8
  %22 = icmp ne ptr %21, null
  br i1 %22, label %23, label %27

23:                                               ; preds = %18
  %24 = load ptr, ptr %4, align 8
  %25 = getelementptr inbounds nuw %struct.evhttp_uri, ptr %24, i32 0, i32 1
  %26 = load ptr, ptr %25, align 8
  call void @event_mm_free_(ptr noundef %26)
  br label %27

27:                                               ; preds = %23, %18
  %28 = load ptr, ptr %5, align 8
  %29 = icmp ne ptr %28, null
  br i1 %29, label %30, label %38

30:                                               ; preds = %27
  %31 = load ptr, ptr %5, align 8
  %32 = call ptr @event_mm_strdup_(ptr noundef %31)
  %33 = load ptr, ptr %4, align 8
  %34 = getelementptr inbounds nuw %struct.evhttp_uri, ptr %33, i32 0, i32 1
  store ptr %32, ptr %34, align 8
  %35 = icmp eq ptr %32, null
  br i1 %35, label %36, label %37

36:                                               ; preds = %30
  call void (ptr, ...) @event_warn(ptr noundef @.str.46, ptr noundef @__func__.evhttp_uri_set_scheme)
  store i32 -1, ptr %3, align 4
  br label %43

37:                                               ; preds = %30
  br label %41

38:                                               ; preds = %27
  %39 = load ptr, ptr %4, align 8
  %40 = getelementptr inbounds nuw %struct.evhttp_uri, ptr %39, i32 0, i32 1
  store ptr null, ptr %40, align 8
  br label %41

41:                                               ; preds = %38, %37
  br label %42

42:                                               ; preds = %41
  store i32 0, ptr %3, align 4
  br label %43

43:                                               ; preds = %42, %36, %16
  %44 = load i32, ptr %3, align 4
  ret i32 %44
}