; Function Attrs: nounwind uwtable
define range(i32 -1, 1) i32 @evhttp_uri_set_scheme(ptr noundef captures(none) %0, ptr noundef %1) local_unnamed_addr #0 {
  %.not = icmp eq ptr %1, null
  br i1 %.not, label %scheme_ok.exit, label %3

3:                                                ; preds = %2
  %4 = tail call i64 @strlen(ptr noundef nonnull dereferenceable(1) %1) #17
  %5 = getelementptr inbounds nuw i8, ptr %1, i64 %4
  %6 = icmp samesign eq i64 %4, 0
  br i1 %6, label %scheme_ok.exit.thread, label %7

7:                                                ; preds = %3
  %8 = load i8, ptr %1, align 1
  %9 = tail call i32 @EVUTIL_ISALPHA_(i8 noundef signext %8) #18
  %.not.i = icmp eq i32 %9, 0
  br i1 %.not.i, label %scheme_ok.exit.thread, label %.preheader.i

.preheader.i:                                     ; preds = %7
  %.not16 = icmp eq i64 %4, 1
  br i1 %.not16, label %scheme_ok.exit, label %.lr.ph.i.preheader

.lr.ph.i.preheader:                               ; preds = %.preheader.i
  %10 = getelementptr inbounds nuw i8, ptr %1, i64 1
  br label %.lr.ph.i

.lr.ph.i:                                         ; preds = %.lr.ph.i.preheader, %16
  %11 = phi ptr [ %17, %16 ], [ %10, %.lr.ph.i.preheader ]
  %12 = load i8, ptr %11, align 1
  %13 = tail call i32 @EVUTIL_ISALNUM_(i8 noundef signext %12) #18
  %.not14.i = icmp eq i32 %13, 0
  br i1 %.not14.i, label %14, label %16

14:                                               ; preds = %.lr.ph.i
  %15 = load i8, ptr %11, align 1
  switch i8 %15, label %scheme_ok.exit.thread [
    i8 43, label %16
    i8 45, label %16
    i8 46, label %16
  ]

16:                                               ; preds = %14, %14, %14, %.lr.ph.i
  %17 = getelementptr inbounds nuw i8, ptr %11, i64 1
  %exitcond.not.i = icmp eq ptr %17, %5
  br i1 %exitcond.not.i, label %scheme_ok.exit, label %.lr.ph.i, !llvm.loop !33

scheme_ok.exit:                                   ; preds = %16, %.preheader.i, %2
  %18 = getelementptr inbounds nuw i8, ptr %0, i64 8
  %19 = load ptr, ptr %18, align 8
  %.not13 = icmp eq ptr %19, null
  br i1 %.not13, label %21, label %20

20:                                               ; preds = %scheme_ok.exit
  tail call void @event_mm_free_(ptr noundef nonnull %19) #18
  br label %21

21:                                               ; preds = %20, %scheme_ok.exit
  br i1 %.not, label %26, label %22

22:                                               ; preds = %21
  %23 = tail call ptr @event_mm_strdup_(ptr noundef nonnull %1) #18
  store ptr %23, ptr %18, align 8
  %24 = icmp eq ptr %23, null
  br i1 %24, label %25, label %scheme_ok.exit.thread

25:                                               ; preds = %22
  tail call void (ptr, ...) @event_warn(ptr noundef nonnull @.str.46, ptr noundef nonnull @__func__.evhttp_uri_set_scheme) #18
  br label %scheme_ok.exit.thread

26:                                               ; preds = %21
  store ptr null, ptr %18, align 8
  br label %scheme_ok.exit.thread

scheme_ok.exit.thread:                            ; preds = %14, %7, %3, %22, %26, %25
  %.0 = phi i32 [ -1, %25 ], [ 0, %26 ], [ 0, %22 ], [ -1, %3 ], [ -1, %7 ], [ -1, %14 ]
  ret i32 %.0
}